; Function Attrs: nounwind uwtable
define void @png_set_filler(ptr noalias noundef %0, i32 noundef %1, i32 noundef %2) local_unnamed_addr #2 {
  %4 = icmp eq ptr %0, null
  br i1 %4, label %36, label %5

5:                                                ; preds = %3
  %6 = getelementptr inbounds i8, ptr %0, i64 300
  %7 = load i32, ptr %6, align 4
  %8 = and i32 %7, 32768
  %.not = icmp eq i32 %8, 0
  br i1 %.not, label %12, label %9

9:                                                ; preds = %5
  %10 = trunc i32 %1 to i16
  %11 = getelementptr inbounds i8, ptr %0, i64 626
  store i16 %10, ptr %11, align 2
  br label %25

12:                                               ; preds = %5
  %13 = getelementptr inbounds i8, ptr %0, i64 615
  %14 = load i8, ptr %13, align 1
  switch i8 %14, label %24 [
    i8 2, label %15
    i8 0, label %17
  ]

15:                                               ; preds = %12
  %16 = getelementptr inbounds i8, ptr %0, i64 620
  store i8 4, ptr %16, align 4
  br label %25

17:                                               ; preds = %12
  %18 = getelementptr inbounds i8, ptr %0, i64 616
  %19 = load i8, ptr %18, align 8
  %20 = icmp ugt i8 %19, 7
  br i1 %20, label %21, label %23

21:                                               ; preds = %17
  %22 = getelementptr inbounds i8, ptr %0, i64 620
  store i8 2, ptr %22, align 4
  br label %25

23:                                               ; preds = %17
  tail call void @png_app_error(ptr noundef nonnull %0, ptr noundef nonnull @.str) #8
  br label %36

24:                                               ; preds = %12
  tail call void @png_app_error(ptr noundef nonnull %0, ptr noundef nonnull @.str.1) #8
  br label %36

25:                                               ; preds = %15, %21, %9
  %26 = getelementptr inbounds i8, ptr %0, i64 308
  %27 = load i32, ptr %26, align 4
  %28 = or i32 %27, 32768
  store i32 %28, ptr %26, align 4
  %29 = icmp eq i32 %2, 1
  %30 = getelementptr inbounds i8, ptr %0, i64 304
  %31 = load i32, ptr %30, align 8
  br i1 %29, label %32, label %34

32:                                               ; preds = %25
  %33 = or i32 %31, 128
  store i32 %33, ptr %30, align 8
  br label %36

34:                                               ; preds = %25
  %35 = and i32 %31, -129
  store i32 %35, ptr %30, align 8
  br label %36

36:                                               ; preds = %3, %34, %32, %24, %23
  ret void
}